target datalayout = "e-m:e-p270:32:32-p271:32:32-p272:64:64-i64:64-i128:128-f80:128-n8:16:32:64-S128"
target triple = "x86_64-pc-linux-gnu"

%struct.mbedtls_asn1_buf = type { i32, i64, ptr }
%struct.mbedtls_asn1_named_data = type { %struct.mbedtls_asn1_buf, %struct.mbedtls_asn1_buf, ptr, i8 }

; Function Attrs: nounwind uwtable
define hidden void @mbedtls_asn1_free_named_data_list(ptr noundef %0) #0 {
  %2 = alloca ptr, align 8
  %3 = alloca ptr, align 8
  store ptr %0, ptr %2, align 8, !tbaa !56
  call void @llvm.lifetime.start.p0(i64 8, ptr %3) #7
  br label %4

4:                                                ; preds = %8, %1
  %5 = load ptr, ptr %2, align 8, !tbaa !56
  %6 = load ptr, ptr %5, align 8, !tbaa !51
  store ptr %6, ptr %3, align 8, !tbaa !51
  %7 = icmp ne ptr %6, null
  br i1 %7, label %8, label %22

8:                                                ; preds = %4
  %9 = load ptr, ptr %3, align 8, !tbaa !51
  %10 = getelementptr inbounds nuw %struct.mbedtls_asn1_named_data, ptr %9, i32 0, i32 2
  %11 = load ptr, ptr %10, align 8, !tbaa !58
  %12 = load ptr, ptr %2, align 8, !tbaa !56
  store ptr %11, ptr %12, align 8, !tbaa !51
  %13 = load ptr, ptr %3, align 8, !tbaa !51
  %14 = getelementptr inbounds nuw %struct.mbedtls_asn1_named_data, ptr %13, i32 0, i32 0
  %15 = getelementptr inbounds nuw %struct.mbedtls_asn1_buf, ptr %14, i32 0, i32 2
  %16 = load ptr, ptr %15, align 8, !tbaa !53
  call void @free(ptr noundef %16) #7
  %17 = load ptr, ptr %3, align 8, !tbaa !51
  %18 = getelementptr inbounds nuw %struct.mbedtls_asn1_named_data, ptr %17, i32 0, i32 1
  %19 = getelementptr inbounds nuw %struct.mbedtls_asn1_buf, ptr %18, i32 0, i32 2
  %20 = load ptr, ptr %19, align 8, !tbaa !55
  call void @free(ptr noundef %20) #7
  %21 = load ptr, ptr %3, align 8, !tbaa !51
  call void @free(ptr noundef %21) #7
  br label %4, !llvm.loop !59

22:                                               ; preds = %4
  call void @llvm.lifetime.end.p0(i64 8, ptr %3) #7
  ret void
}