; Function Attrs: nounwind uwtable
define hidden void @mbedtls_asn1_free_named_data_list(ptr noundef captures(none) %0) local_unnamed_addr #2 {
  %2 = load ptr, ptr %0, align 8, !tbaa !39
  %.not6 = icmp eq ptr %2, null
  br i1 %.not6, label %._crit_edge, label %.lr.ph

.lr.ph:                                           ; preds = %1, %.lr.ph
  %3 = phi ptr [ %10, %.lr.ph ], [ %2, %1 ]
  %4 = getelementptr inbounds nuw i8, ptr %3, i64 48
  %5 = load ptr, ptr %4, align 8, !tbaa !40
  store ptr %5, ptr %0, align 8, !tbaa !39
  %6 = getelementptr inbounds nuw i8, ptr %3, i64 16
  %7 = load ptr, ptr %6, align 8, !tbaa !35
  tail call void @free(ptr noundef %7) #10
  %8 = getelementptr inbounds nuw i8, ptr %3, i64 40
  %9 = load ptr, ptr %8, align 8, !tbaa !38
  tail call void @free(ptr noundef %9) #10
  tail call void @free(ptr noundef nonnull %3) #10
  %10 = load ptr, ptr %0, align 8, !tbaa !39
  %.not = icmp eq ptr %10, null
  br i1 %.not, label %._crit_edge, label %.lr.ph, !llvm.loop !41

._crit_edge:                                      ; preds = %.lr.ph, %1
  ret void
}